target datalayout = "e-m:e-p270:32:32-p271:32:32-p272:64:64-i64:64-f80:128-n8:16:32:64-S128"
target triple = "x86_64-pc-linux-gnu"

@.str = private unnamed_addr constant [6 x i8] c"%d %d\00", align 1
@.str.1 = private unnamed_addr constant [3 x i8] c"%d\00", align 1
@.str.2 = private unnamed_addr constant [4 x i8] c"%d \00", align 1

; Function Attrs: noinline nounwind uwtable
define dso_local i32 @main() #0 {
  %1 = alloca i32, align 4
  %2 = alloca i32, align 4
  %3 = alloca i32, align 4
  %4 = alloca i32, align 4
  %5 = alloca i32, align 4
  %6 = alloca [10 x i32], align 16
  %7 = alloca [10 x i32], align 16
  store i32 0, i32* %1, align 4
  %8 = call i32 (i8*, ...) @__isoc99_scanf(i8* getelementptr inbounds ([6 x i8], [6 x i8]* @.str, i64 0, i64 0), i32* %2, i32* %3)
  store i32 0, i32* %4, align 4
  br label %9

9:                                                ; preds = %18, %0
  %10 = load i32, i32* %4, align 4
  %11 = load i32, i32* %2, align 4
  %12 = icmp slt i32 %10, %11
  br i1 %12, label %13, label %21

13:                                               ; preds = %9
  %14 = load i32, i32* %4, align 4
  %15 = sext i32 %14 to i64
  %16 = getelementptr inbounds [10 x i32], [10 x i32]* %6, i64 0, i64 %15
  %17 = call i32 (i8*, ...) @__isoc99_scanf(i8* getelementptr inbounds ([3 x i8], [3 x i8]* @.str.1, i64 0, i64 0), i32* %16)
  br label %18

18:                                               ; preds = %13
  %19 = load i32, i32* %4, align 4
  %20 = add nsw i32 %19, 1
  store i32 %20, i32* %4, align 4
  br label %9

21:                                               ; preds = %9
  store i32 0, i32* %5, align 4
  br label %22

22:                                               ; preds = %31, %21
  %23 = load i32, i32* %5, align 4
  %24 = load i32, i32* %3, align 4
  %25 = icmp slt i32 %23, %24
  br i1 %25, label %26, label %34

26:                                               ; preds = %22
  %27 = load i32, i32* %5, align 4
  %28 = sext i32 %27 to i64
  %29 = getelementptr inbounds [10 x i32], [10 x i32]* %7, i64 0, i64 %28
  %30 = call i32 (i8*, ...) @__isoc99_scanf(i8* getelementptr inbounds ([3 x i8], [3 x i8]* @.str.1, i64 0, i64 0), i32* %29)
  br label %31

31:                                               ; preds = %26
  %32 = load i32, i32* %5, align 4
  %33 = add nsw i32 %32, 1
  store i32 %33, i32* %5, align 4
  br label %22

34:                                               ; preds = %22
  %35 = getelementptr inbounds [10 x i32], [10 x i32]* %6, i64 0, i64 0
  %36 = load i32, i32* %2, align 4
  %37 = call i32 @f(i32* %35, i32 %36)
  %38 = getelementptr inbounds [10 x i32], [10 x i32]* %7, i64 0, i64 0
  %39 = load i32, i32* %3, align 4
  %40 = call i32 @f(i32* %38, i32 %39)
  store i32 0, i32* %4, align 4
  br label %41

41:                                               ; preds = %51, %34
  %42 = load i32, i32* %4, align 4
  %43 = load i32, i32* %2, align 4
  %44 = icmp slt i32 %42, %43
  br i1 %44, label %45, label %54

45:                                               ; preds = %41
  %46 = load i32, i32* %4, align 4
  %47 = sext i32 %46 to i64
  %48 = getelementptr inbounds [10 x i32], [10 x i32]* %6, i64 0, i64 %47
  %49 = load i32, i32* %48, align 4
  %50 = call i32 (i8*, ...) @printf(i8* getelementptr inbounds ([4 x i8], [4 x i8]* @.str.2, i64 0, i64 0), i32 %49)
  br label %51

51:                                               ; preds = %45
  %52 = load i32, i32* %4, align 4
  %53 = add nsw i32 %52, 1
  store i32 %53, i32* %4, align 4
  br label %41

54:                                               ; preds = %41
  store i32 0, i32* %5, align 4
  br label %55

55:                                               ; preds = %66, %54
  %56 = load i32, i32* %5, align 4
  %57 = load i32, i32* %3, align 4
  %58 = sub nsw i32 %57, 1
  %59 = icmp slt i32 %56, %58
  br i1 %59, label %60, label %69

60:                                               ; preds = %55
  %61 = load i32, i32* %5, align 4
  %62 = sext i32 %61 to i64
  %63 = getelementptr inbounds [10 x i32], [10 x i32]* %7, i64 0, i64 %62
  %64 = load i32, i32* %63, align 4
  %65 = call i32 (i8*, ...) @printf(i8* getelementptr inbounds ([4 x i8], [4 x i8]* @.str.2, i64 0, i64 0), i32 %64)
  br label %66

66:                                               ; preds = %60
  %67 = load i32, i32* %5, align 4
  %68 = add nsw i32 %67, 1
  store i32 %68, i32* %5, align 4
  br label %55

69:                                               ; preds = %55
  %70 = load i32, i32* %3, align 4
  %71 = sub nsw i32 %70, 1
  %72 = sext i32 %71 to i64
  %73 = getelementptr inbounds [10 x i32], [10 x i32]* %7, i64 0, i64 %72
  %74 = load i32, i32* %73, align 4
  %75 = call i32 (i8*, ...) @printf(i8* getelementptr inbounds ([3 x i8], [3 x i8]* @.str.1, i64 0, i64 0), i32 %74)
  %76 = load i32, i32* %1, align 4
  ret i32 %76
}

; Function Attrs: noinline nounwind uwtable
define dso_local i32 @f(i32* %0, i32 %1) #0 {
  %3 = alloca i32, align 4
  %4 = alloca i32*, align 8
  %5 = alloca i32, align 4
  %6 = alloca i32, align 4
  %7 = alloca i32, align 4
  %8 = alloca i32, align 4
  %9 = alloca i32, align 4
  store i32* %0, i32** %4, align 8
  store i32 %1, i32* %5, align 4
  store i32 0, i32* %6, align 4
  br label %10

10:                                               ; preds = %61, %2
  %11 = load i32, i32* %6, align 4
  %12 = load i32, i32* %5, align 4
  %13 = sub nsw i32 %12, 1
  %14 = icmp slt i32 %11, %13
  br i1 %14, label %15, label %64

15:                                               ; preds = %10
  %16 = load i32, i32* %6, align 4
  store i32 %16, i32* %8, align 4
  %17 = load i32, i32* %6, align 4
  %18 = add nsw i32 %17, 1
  store i32 %18, i32* %7, align 4
  br label %19

19:                                               ; preds = %38, %15
  %20 = load i32, i32* %7, align 4
  %21 = load i32, i32* %5, align 4
  %22 = icmp slt i32 %20, %21
  br i1 %22, label %23, label %41

23:                                               ; preds = %19
  %24 = load i32*, i32** %4, align 8
  %25 = load i32, i32* %7, align 4
  %26 = sext i32 %25 to i64
  %27 = getelementptr inbounds i32, i32* %24, i64 %26
  %28 = load i32, i32* %27, align 4
  %29 = load i32*, i32** %4, align 8
  %30 = load i32, i32* %8, align 4
  %31 = sext i32 %30 to i64
  %32 = getelementptr inbounds i32, i32* %29, i64 %31
  %33 = load i32, i32* %32, align 4
  %34 = icmp slt i32 %28, %33
  br i1 %34, label %35, label %37

35:                                               ; preds = %23
  %36 = load i32, i32* %7, align 4
  store i32 %36, i32* %8, align 4
  br label %37

37:                                               ; preds = %35, %23
  br label %38

38:                                               ; preds = %37
  %39 = load i32, i32* %7, align 4
  %40 = add nsw i32 %39, 1
  store i32 %40, i32* %7, align 4
  br label %19

41:                                               ; preds = %19
  %42 = load i32*, i32** %4, align 8
  %43 = load i32, i32* %8, align 4
  %44 = sext i32 %43 to i64
  %45 = getelementptr inbounds i32, i32* %42, i64 %44
  %46 = load i32, i32* %45, align 4
  store i32 %46, i32* %9, align 4
  %47 = load i32*, i32** %4, align 8
  %48 = load i32, i32* %6, align 4
  %49 = sext i32 %48 to i64
  %50 = getelementptr inbounds i32, i32* %47, i64 %49
  %51 = load i32, i32* %50, align 4
  %52 = load i32*, i32** %4, align 8
  %53 = load i32, i32* %8, align 4
  %54 = sext i32 %53 to i64
  %55 = getelementptr inbounds i32, i32* %52, i64 %54
  store i32 %51, i32* %55, align 4
  %56 = load i32, i32* %9, align 4
  %57 = load i32*, i32** %4, align 8
  %58 = load i32, i32* %6, align 4
  %59 = sext i32 %58 to i64
  %60 = getelementptr inbounds i32, i32* %57, i64 %59
  store i32 %56, i32* %60, align 4
  br label %61

61:                                               ; preds = %41
  %62 = load i32, i32* %6, align 4
  %63 = add nsw i32 %62, 1
  store i32 %63, i32* %6, align 4
  br label %10

64:                                               ; preds = %10
  %65 = load i32, i32* %3, align 4
  ret i32 %65
}