; Function Attrs: nofree nounwind sspstrong uwtable
define dso_local i32 @main() local_unnamed_addr #0 {
  %1 = alloca i32, align 4
  %2 = alloca i32, align 4
  %3 = alloca [10 x i32], align 16
  %4 = alloca [10 x i32], align 16
  %5 = bitcast i32* %1 to i8*
  call void @llvm.lifetime.start.p0i8(i64 4, i8* nonnull %5) #4
  %6 = bitcast i32* %2 to i8*
  call void @llvm.lifetime.start.p0i8(i64 4, i8* nonnull %6) #4
  %7 = bitcast [10 x i32]* %3 to i8*
  call void @llvm.lifetime.start.p0i8(i64 40, i8* nonnull %7) #4
  %8 = bitcast [10 x i32]* %4 to i8*
  call void @llvm.lifetime.start.p0i8(i64 40, i8* nonnull %8) #4
  %9 = call i32 (i8*, ...) @__isoc99_scanf(i8* getelementptr inbounds ([6 x i8], [6 x i8]* @.str, i64 0, i64 0), i32* nonnull %1, i32* nonnull %2)
  %10 = load i32, i32* %1, align 4, !tbaa !5
  %11 = icmp sgt i32 %10, 0
  br i1 %11, label %16, label %12

12:                                               ; preds = %16, %0
  %13 = phi i32 [ %10, %0 ], [ %21, %16 ]
  %14 = load i32, i32* %2, align 4, !tbaa !5
  %15 = icmp sgt i32 %14, 0
  br i1 %15, label %24, label %34

16:                                               ; preds = %0, %16
  %17 = phi i64 [ %20, %16 ], [ 0, %0 ]
  %18 = getelementptr inbounds [10 x i32], [10 x i32]* %3, i64 0, i64 %17
  %19 = call i32 (i8*, ...) @__isoc99_scanf(i8* getelementptr inbounds ([3 x i8], [3 x i8]* @.str.1, i64 0, i64 0), i32* nonnull %18)
  %20 = add nuw nsw i64 %17, 1
  %21 = load i32, i32* %1, align 4, !tbaa !5
  %22 = sext i32 %21 to i64
  %23 = icmp slt i64 %20, %22
  br i1 %23, label %16, label %12, !llvm.loop !9

24:                                               ; preds = %12, %24
  %25 = phi i64 [ %28, %24 ], [ 0, %12 ]
  %26 = getelementptr inbounds [10 x i32], [10 x i32]* %4, i64 0, i64 %25
  %27 = call i32 (i8*, ...) @__isoc99_scanf(i8* getelementptr inbounds ([3 x i8], [3 x i8]* @.str.1, i64 0, i64 0), i32* nonnull %26)
  %28 = add nuw nsw i64 %25, 1
  %29 = load i32, i32* %2, align 4, !tbaa !5
  %30 = sext i32 %29 to i64
  %31 = icmp slt i64 %28, %30
  br i1 %31, label %24, label %32, !llvm.loop !11

32:                                               ; preds = %24
  %33 = load i32, i32* %1, align 4, !tbaa !5
  br label %34

34:                                               ; preds = %32, %12
  %35 = phi i32 [ %13, %12 ], [ %33, %32 ]
  %36 = phi i32 [ %14, %12 ], [ %29, %32 ]
  %37 = icmp sgt i32 %35, 1
  br i1 %37, label %38, label %124

38:                                               ; preds = %34
  %39 = zext i32 %35 to i64
  %40 = add nsw i32 %35, -1
  %41 = zext i32 %40 to i64
  %42 = add nsw i64 %39, -2
  br label %43

43:                                               ; preds = %115, %38
  %44 = phi i64 [ 0, %38 ], [ %47, %115 ]
  %45 = phi i64 [ 1, %38 ], [ %122, %115 ]
  %46 = sub i64 %42, %44
  %47 = add nuw nsw i64 %44, 1
  %48 = icmp ult i64 %47, %39
  %49 = trunc i64 %44 to i32
  br i1 %48, label %50, label %115

50:                                               ; preds = %43
  %51 = xor i64 %44, -1
  %52 = add nsw i64 %51, %39
  %53 = and i64 %52, 3
  %54 = icmp eq i64 %53, 0
  br i1 %54, label %70, label %55

55:                                               ; preds = %50, %55
  %56 = phi i64 [ %67, %55 ], [ %45, %50 ]
  %57 = phi i32 [ %66, %55 ], [ %49, %50 ]
  %58 = phi i64 [ %68, %55 ], [ %53, %50 ]
  %59 = getelementptr inbounds [10 x i32], [10 x i32]* %3, i64 0, i64 %56
  %60 = load i32, i32* %59, align 4, !tbaa !5
  %61 = sext i32 %57 to i64
  %62 = getelementptr inbounds [10 x i32], [10 x i32]* %3, i64 0, i64 %61
  %63 = load i32, i32* %62, align 4, !tbaa !5
  %64 = icmp slt i32 %60, %63
  %65 = trunc i64 %56 to i32
  %66 = select i1 %64, i32 %65, i32 %57
  %67 = add nuw nsw i64 %56, 1
  %68 = add i64 %58, -1
  %69 = icmp eq i64 %68, 0
  br i1 %69, label %70, label %55, !llvm.loop !12

70:                                               ; preds = %55, %50
  %71 = phi i32 [ undef, %50 ], [ %66, %55 ]
  %72 = phi i64 [ %45, %50 ], [ %67, %55 ]
  %73 = phi i32 [ %49, %50 ], [ %66, %55 ]
  %74 = icmp ult i64 %46, 3
  br i1 %74, label %115, label %75

75:                                               ; preds = %70, %75
  %76 = phi i64 [ %113, %75 ], [ %72, %70 ]
  %77 = phi i32 [ %112, %75 ], [ %73, %70 ]
  %78 = getelementptr inbounds [10 x i32], [10 x i32]* %3, i64 0, i64 %76
  %79 = load i32, i32* %78, align 4, !tbaa !5
  %80 = sext i32 %77 to i64
  %81 = getelementptr inbounds [10 x i32], [10 x i32]* %3, i64 0, i64 %80
  %82 = load i32, i32* %81, align 4, !tbaa !5
  %83 = icmp slt i32 %79, %82
  %84 = trunc i64 %76 to i32
  %85 = select i1 %83, i32 %84, i32 %77
  %86 = add nuw nsw i64 %76, 1
  %87 = getelementptr inbounds [10 x i32], [10 x i32]* %3, i64 0, i64 %86
  %88 = load i32, i32* %87, align 4, !tbaa !5
  %89 = sext i32 %85 to i64
  %90 = getelementptr inbounds [10 x i32], [10 x i32]* %3, i64 0, i64 %89
  %91 = load i32, i32* %90, align 4, !tbaa !5
  %92 = icmp slt i32 %88, %91
  %93 = trunc i64 %86 to i32
  %94 = select i1 %92, i32 %93, i32 %85
  %95 = add nuw nsw i64 %76, 2
  %96 = getelementptr inbounds [10 x i32], [10 x i32]* %3, i64 0, i64 %95
  %97 = load i32, i32* %96, align 4, !tbaa !5
  %98 = sext i32 %94 to i64
  %99 = getelementptr inbounds [10 x i32], [10 x i32]* %3, i64 0, i64 %98
  %100 = load i32, i32* %99, align 4, !tbaa !5
  %101 = icmp slt i32 %97, %100
  %102 = trunc i64 %95 to i32
  %103 = select i1 %101, i32 %102, i32 %94
  %104 = add nuw nsw i64 %76, 3
  %105 = getelementptr inbounds [10 x i32], [10 x i32]* %3, i64 0, i64 %104
  %106 = load i32, i32* %105, align 4, !tbaa !5
  %107 = sext i32 %103 to i64
  %108 = getelementptr inbounds [10 x i32], [10 x i32]* %3, i64 0, i64 %107
  %109 = load i32, i32* %108, align 4, !tbaa !5
  %110 = icmp slt i32 %106, %109
  %111 = trunc i64 %104 to i32
  %112 = select i1 %110, i32 %111, i32 %103
  %113 = add nuw nsw i64 %76, 4
  %114 = icmp eq i64 %113, %39
  br i1 %114, label %115, label %75, !llvm.loop !14

115:                                              ; preds = %70, %75, %43
  %116 = phi i32 [ %49, %43 ], [ %71, %70 ], [ %112, %75 ]
  %117 = sext i32 %116 to i64
  %118 = getelementptr inbounds [10 x i32], [10 x i32]* %3, i64 0, i64 %117
  %119 = load i32, i32* %118, align 4, !tbaa !5
  %120 = getelementptr inbounds [10 x i32], [10 x i32]* %3, i64 0, i64 %44
  %121 = load i32, i32* %120, align 4, !tbaa !5
  store i32 %121, i32* %118, align 4, !tbaa !5
  store i32 %119, i32* %120, align 4, !tbaa !5
  %122 = add nuw nsw i64 %45, 1
  %123 = icmp eq i64 %47, %41
  br i1 %123, label %124, label %43, !llvm.loop !15

124:                                              ; preds = %115, %34
  %125 = icmp sgt i32 %36, 1
  br i1 %125, label %126, label %212

126:                                              ; preds = %124
  %127 = zext i32 %36 to i64
  %128 = add nsw i32 %36, -1
  %129 = zext i32 %128 to i64
  %130 = add nsw i64 %127, -2
  br label %131

131:                                              ; preds = %203, %126
  %132 = phi i64 [ 0, %126 ], [ %135, %203 ]
  %133 = phi i64 [ 1, %126 ], [ %210, %203 ]
  %134 = sub i64 %130, %132
  %135 = add nuw nsw i64 %132, 1
  %136 = icmp ult i64 %135, %127
  %137 = trunc i64 %132 to i32
  br i1 %136, label %138, label %203

138:                                              ; preds = %131
  %139 = xor i64 %132, -1
  %140 = add nsw i64 %139, %127
  %141 = and i64 %140, 3
  %142 = icmp eq i64 %141, 0
  br i1 %142, label %158, label %143

143:                                              ; preds = %138, %143
  %144 = phi i64 [ %155, %143 ], [ %133, %138 ]
  %145 = phi i32 [ %154, %143 ], [ %137, %138 ]
  %146 = phi i64 [ %156, %143 ], [ %141, %138 ]
  %147 = getelementptr inbounds [10 x i32], [10 x i32]* %4, i64 0, i64 %144
  %148 = load i32, i32* %147, align 4, !tbaa !5
  %149 = sext i32 %145 to i64
  %150 = getelementptr inbounds [10 x i32], [10 x i32]* %4, i64 0, i64 %149
  %151 = load i32, i32* %150, align 4, !tbaa !5
  %152 = icmp slt i32 %148, %151
  %153 = trunc i64 %144 to i32
  %154 = select i1 %152, i32 %153, i32 %145
  %155 = add nuw nsw i64 %144, 1
  %156 = add i64 %146, -1
  %157 = icmp eq i64 %156, 0
  br i1 %157, label %158, label %143, !llvm.loop !16

158:                                              ; preds = %143, %138
  %159 = phi i32 [ undef, %138 ], [ %154, %143 ]
  %160 = phi i64 [ %133, %138 ], [ %155, %143 ]
  %161 = phi i32 [ %137, %138 ], [ %154, %143 ]
  %162 = icmp ult i64 %134, 3
  br i1 %162, label %203, label %163

163:                                              ; preds = %158, %163
  %164 = phi i64 [ %201, %163 ], [ %160, %158 ]
  %165 = phi i32 [ %200, %163 ], [ %161, %158 ]
  %166 = getelementptr inbounds [10 x i32], [10 x i32]* %4, i64 0, i64 %164
  %167 = load i32, i32* %166, align 4, !tbaa !5
  %168 = sext i32 %165 to i64
  %169 = getelementptr inbounds [10 x i32], [10 x i32]* %4, i64 0, i64 %168
  %170 = load i32, i32* %169, align 4, !tbaa !5
  %171 = icmp slt i32 %167, %170
  %172 = trunc i64 %164 to i32
  %173 = select i1 %171, i32 %172, i32 %165
  %174 = add nuw nsw i64 %164, 1
  %175 = getelementptr inbounds [10 x i32], [10 x i32]* %4, i64 0, i64 %174
  %176 = load i32, i32* %175, align 4, !tbaa !5
  %177 = sext i32 %173 to i64
  %178 = getelementptr inbounds [10 x i32], [10 x i32]* %4, i64 0, i64 %177
  %179 = load i32, i32* %178, align 4, !tbaa !5
  %180 = icmp slt i32 %176, %179
  %181 = trunc i64 %174 to i32
  %182 = select i1 %180, i32 %181, i32 %173
  %183 = add nuw nsw i64 %164, 2
  %184 = getelementptr inbounds [10 x i32], [10 x i32]* %4, i64 0, i64 %183
  %185 = load i32, i32* %184, align 4, !tbaa !5
  %186 = sext i32 %182 to i64
  %187 = getelementptr inbounds [10 x i32], [10 x i32]* %4, i64 0, i64 %186
  %188 = load i32, i32* %187, align 4, !tbaa !5
  %189 = icmp slt i32 %185, %188
  %190 = trunc i64 %183 to i32
  %191 = select i1 %189, i32 %190, i32 %182
  %192 = add nuw nsw i64 %164, 3
  %193 = getelementptr inbounds [10 x i32], [10 x i32]* %4, i64 0, i64 %192
  %194 = load i32, i32* %193, align 4, !tbaa !5
  %195 = sext i32 %191 to i64
  %196 = getelementptr inbounds [10 x i32], [10 x i32]* %4, i64 0, i64 %195
  %197 = load i32, i32* %196, align 4, !tbaa !5
  %198 = icmp slt i32 %194, %197
  %199 = trunc i64 %192 to i32
  %200 = select i1 %198, i32 %199, i32 %191
  %201 = add nuw nsw i64 %164, 4
  %202 = icmp eq i64 %201, %127
  br i1 %202, label %203, label %163, !llvm.loop !14

203:                                              ; preds = %158, %163, %131
  %204 = phi i32 [ %137, %131 ], [ %159, %158 ], [ %200, %163 ]
  %205 = sext i32 %204 to i64
  %206 = getelementptr inbounds [10 x i32], [10 x i32]* %4, i64 0, i64 %205
  %207 = load i32, i32* %206, align 4, !tbaa !5
  %208 = getelementptr inbounds [10 x i32], [10 x i32]* %4, i64 0, i64 %132
  %209 = load i32, i32* %208, align 4, !tbaa !5
  store i32 %209, i32* %206, align 4, !tbaa !5
  store i32 %207, i32* %208, align 4, !tbaa !5
  %210 = add nuw nsw i64 %133, 1
  %211 = icmp eq i64 %135, %129
  br i1 %211, label %212, label %131, !llvm.loop !15

212:                                              ; preds = %203, %124
  %213 = icmp sgt i32 %35, 0
  br i1 %213, label %222, label %216

214:                                              ; preds = %222
  %215 = load i32, i32* %2, align 4, !tbaa !5
  br label %216

216:                                              ; preds = %214, %212
  %217 = phi i32 [ %215, %214 ], [ %36, %212 ]
  %218 = icmp sgt i32 %217, 1
  br i1 %218, label %231, label %219

219:                                              ; preds = %216
  %220 = add nsw i32 %217, -1
  %221 = sext i32 %220 to i64
  br label %241

222:                                              ; preds = %212, %222
  %223 = phi i64 [ %227, %222 ], [ 0, %212 ]
  %224 = getelementptr inbounds [10 x i32], [10 x i32]* %3, i64 0, i64 %223
  %225 = load i32, i32* %224, align 4, !tbaa !5
  %226 = call i32 (i8*, ...) @printf(i8* nonnull dereferenceable(1) getelementptr inbounds ([4 x i8], [4 x i8]* @.str.2, i64 0, i64 0), i32 %225)
  %227 = add nuw nsw i64 %223, 1
  %228 = load i32, i32* %1, align 4, !tbaa !5
  %229 = sext i32 %228 to i64
  %230 = icmp slt i64 %227, %229
  br i1 %230, label %222, label %214, !llvm.loop !17

231:                                              ; preds = %216, %231
  %232 = phi i64 [ %236, %231 ], [ 0, %216 ]
  %233 = getelementptr inbounds [10 x i32], [10 x i32]* %4, i64 0, i64 %232
  %234 = load i32, i32* %233, align 4, !tbaa !5
  %235 = call i32 (i8*, ...) @printf(i8* nonnull dereferenceable(1) getelementptr inbounds ([4 x i8], [4 x i8]* @.str.2, i64 0, i64 0), i32 %234)
  %236 = add nuw nsw i64 %232, 1
  %237 = load i32, i32* %2, align 4, !tbaa !5
  %238 = add nsw i32 %237, -1
  %239 = sext i32 %238 to i64
  %240 = icmp slt i64 %236, %239
  br i1 %240, label %231, label %241, !llvm.loop !18

241:                                              ; preds = %231, %219
  %242 = phi i64 [ %221, %219 ], [ %239, %231 ]
  %243 = getelementptr inbounds [10 x i32], [10 x i32]* %4, i64 0, i64 %242
  %244 = load i32, i32* %243, align 4, !tbaa !5
  %245 = call i32 (i8*, ...) @printf(i8* nonnull dereferenceable(1) getelementptr inbounds ([3 x i8], [3 x i8]* @.str.1, i64 0, i64 0), i32 %244)
  call void @llvm.lifetime.end.p0i8(i64 40, i8* nonnull %8) #4
  call void @llvm.lifetime.end.p0i8(i64 40, i8* nonnull %7) #4
  call void @llvm.lifetime.end.p0i8(i64 4, i8* nonnull %6) #4
  call void @llvm.lifetime.end.p0i8(i64 4, i8* nonnull %5) #4
  ret i32 0
}

; Function Attrs: nofree norecurse nosync nounwind sspstrong uwtable
define dso_local i32 @f(i32* nocapture %0, i32 %1) local_unnamed_addr #3 {
  %3 = icmp sgt i32 %1, 1
  br i1 %3, label %4, label %91

4:                                                ; preds = %2
  %5 = zext i32 %1 to i64
  %6 = add nsw i32 %1, -1
  %7 = zext i32 %6 to i64
  %8 = zext i32 %1 to i64
  %9 = add nsw i64 %8, -2
  br label %10

10:                                               ; preds = %4, %82
  %11 = phi i64 [ 0, %4 ], [ %14, %82 ]
  %12 = phi i64 [ 1, %4 ], [ %89, %82 ]
  %13 = sub i64 %9, %11
  %14 = add nuw nsw i64 %11, 1
  %15 = icmp ult i64 %14, %5
  %16 = trunc i64 %11 to i32
  br i1 %15, label %17, label %82

17:                                               ; preds = %10
  %18 = xor i64 %11, -1
  %19 = add nsw i64 %18, %8
  %20 = and i64 %19, 3
  %21 = icmp eq i64 %20, 0
  br i1 %21, label %37, label %22

22:                                               ; preds = %17, %22
  %23 = phi i64 [ %34, %22 ], [ %12, %17 ]
  %24 = phi i32 [ %33, %22 ], [ %16, %17 ]
  %25 = phi i64 [ %35, %22 ], [ %20, %17 ]
  %26 = getelementptr inbounds i32, i32* %0, i64 %23
  %27 = load i32, i32* %26, align 4, !tbaa !5
  %28 = sext i32 %24 to i64
  %29 = getelementptr inbounds i32, i32* %0, i64 %28
  %30 = load i32, i32* %29, align 4, !tbaa !5
  %31 = icmp slt i32 %27, %30
  %32 = trunc i64 %23 to i32
  %33 = select i1 %31, i32 %32, i32 %24
  %34 = add nuw nsw i64 %23, 1
  %35 = add i64 %25, -1
  %36 = icmp eq i64 %35, 0
  br i1 %36, label %37, label %22, !llvm.loop !19

37:                                               ; preds = %22, %17
  %38 = phi i32 [ undef, %17 ], [ %33, %22 ]
  %39 = phi i64 [ %12, %17 ], [ %34, %22 ]
  %40 = phi i32 [ %16, %17 ], [ %33, %22 ]
  %41 = icmp ult i64 %13, 3
  br i1 %41, label %82, label %42

42:                                               ; preds = %37, %42
  %43 = phi i64 [ %80, %42 ], [ %39, %37 ]
  %44 = phi i32 [ %79, %42 ], [ %40, %37 ]
  %45 = getelementptr inbounds i32, i32* %0, i64 %43
  %46 = load i32, i32* %45, align 4, !tbaa !5
  %47 = sext i32 %44 to i64
  %48 = getelementptr inbounds i32, i32* %0, i64 %47
  %49 = load i32, i32* %48, align 4, !tbaa !5
  %50 = icmp slt i32 %46, %49
  %51 = trunc i64 %43 to i32
  %52 = select i1 %50, i32 %51, i32 %44
  %53 = add nuw nsw i64 %43, 1
  %54 = getelementptr inbounds i32, i32* %0, i64 %53
  %55 = load i32, i32* %54, align 4, !tbaa !5
  %56 = sext i32 %52 to i64
  %57 = getelementptr inbounds i32, i32* %0, i64 %56
  %58 = load i32, i32* %57, align 4, !tbaa !5
  %59 = icmp slt i32 %55, %58
  %60 = trunc i64 %53 to i32
  %61 = select i1 %59, i32 %60, i32 %52
  %62 = add nuw nsw i64 %43, 2
  %63 = getelementptr inbounds i32, i32* %0, i64 %62
  %64 = load i32, i32* %63, align 4, !tbaa !5
  %65 = sext i32 %61 to i64
  %66 = getelementptr inbounds i32, i32* %0, i64 %65
  %67 = load i32, i32* %66, align 4, !tbaa !5
  %68 = icmp slt i32 %64, %67
  %69 = trunc i64 %62 to i32
  %70 = select i1 %68, i32 %69, i32 %61
  %71 = add nuw nsw i64 %43, 3
  %72 = getelementptr inbounds i32, i32* %0, i64 %71
  %73 = load i32, i32* %72, align 4, !tbaa !5
  %74 = sext i32 %70 to i64
  %75 = getelementptr inbounds i32, i32* %0, i64 %74
  %76 = load i32, i32* %75, align 4, !tbaa !5
  %77 = icmp slt i32 %73, %76
  %78 = trunc i64 %71 to i32
  %79 = select i1 %77, i32 %78, i32 %70
  %80 = add nuw nsw i64 %43, 4
  %81 = icmp eq i64 %80, %8
  br i1 %81, label %82, label %42, !llvm.loop !14

82:                                               ; preds = %37, %42, %10
  %83 = phi i32 [ %16, %10 ], [ %38, %37 ], [ %79, %42 ]
  %84 = sext i32 %83 to i64
  %85 = getelementptr inbounds i32, i32* %0, i64 %84
  %86 = load i32, i32* %85, align 4, !tbaa !5
  %87 = getelementptr inbounds i32, i32* %0, i64 %11
  %88 = load i32, i32* %87, align 4, !tbaa !5
  store i32 %88, i32* %85, align 4, !tbaa !5
  store i32 %86, i32* %87, align 4, !tbaa !5
  %89 = add nuw nsw i64 %12, 1
  %90 = icmp eq i64 %14, %7
  br i1 %90, label %91, label %10, !llvm.loop !15

91:                                               ; preds = %82, %2
  ret i32 undef
}